; Function Attrs: nofree nosync nounwind memory(none) uwtable
define ptr @av_dv_codec_profile2(i32 noundef %0, i32 noundef %1, i32 noundef %2, i64 %3) local_unnamed_addr #4 {
  %5 = and i64 %3, 4294967295
  %6 = icmp eq i64 %5, 0
  %7 = icmp ult i64 %3, 4294967296
  %8 = or i1 %7, %6
  %.fr = freeze i1 %8
  br i1 %.fr, label %.split.us, label %.split

.split.us:                                        ; preds = %4, %21
  %indvars.iv25 = phi i64 [ %indvars.iv.next26, %21 ], [ 0, %4 ]
  %9 = getelementptr inbounds nuw [10 x %struct.AVDVProfile], ptr @dv_profiles, i64 0, i64 %indvars.iv25
  %10 = getelementptr inbounds nuw i8, ptr %9, i64 32
  %11 = load i32, ptr %10, align 8, !tbaa !12
  %12 = icmp eq i32 %1, %11
  br i1 %12, label %13, label %21

13:                                               ; preds = %.split.us
  %14 = getelementptr inbounds nuw i8, ptr %9, i64 56
  %15 = load i32, ptr %14, align 8, !tbaa !13
  %16 = icmp eq i32 %2, %15
  br i1 %16, label %17, label %21

17:                                               ; preds = %13
  %18 = getelementptr inbounds nuw i8, ptr %9, i64 36
  %19 = load i32, ptr %18, align 4, !tbaa !4
  %20 = icmp eq i32 %0, %19
  br i1 %20, label %.critedge, label %21

21:                                               ; preds = %17, %13, %.split.us
  %indvars.iv.next26 = add nuw nsw i64 %indvars.iv25, 1
  %exitcond28.not = icmp eq i64 %indvars.iv.next26, 10
  br i1 %exitcond28.not, label %.critedge, label %.split.us, !llvm.loop !42

.split:                                           ; preds = %4, %41
  %indvars.iv = phi i64 [ %indvars.iv.next, %41 ], [ 0, %4 ]
  %.01620 = phi ptr [ %.1, %41 ], [ null, %4 ]
  %22 = getelementptr inbounds nuw [10 x %struct.AVDVProfile], ptr @dv_profiles, i64 0, i64 %indvars.iv
  %23 = getelementptr inbounds nuw i8, ptr %22, i64 32
  %24 = load i32, ptr %23, align 8, !tbaa !12
  %25 = icmp eq i32 %1, %24
  br i1 %25, label %26, label %41

26:                                               ; preds = %.split
  %27 = getelementptr inbounds nuw i8, ptr %22, i64 56
  %28 = load i32, ptr %27, align 8, !tbaa !13
  %29 = icmp eq i32 %2, %28
  br i1 %29, label %30, label %41

30:                                               ; preds = %26
  %31 = getelementptr inbounds nuw i8, ptr %22, i64 36
  %32 = load i32, ptr %31, align 4, !tbaa !4
  %33 = icmp eq i32 %0, %32
  br i1 %33, label %34, label %41

34:                                               ; preds = %30
  %35 = getelementptr inbounds nuw i8, ptr %22, i64 20
  %36 = load i64, ptr %35, align 4
  %37 = tail call i64 @av_div_q(i64 %36, i64 %3) #7
  %38 = and i64 %37, 4294967295
  %39 = icmp eq i64 %38, 1
  br i1 %39, label %.critedge, label %40

40:                                               ; preds = %34
  %.not = icmp eq ptr %.01620, null
  %spec.select = select i1 %.not, ptr %22, ptr %.01620
  br label %41

41:                                               ; preds = %40, %.split, %26, %30
  %.1 = phi ptr [ %.01620, %30 ], [ %.01620, %26 ], [ %.01620, %.split ], [ %spec.select, %40 ]
  %indvars.iv.next = add nuw nsw i64 %indvars.iv, 1
  %exitcond.not = icmp eq i64 %indvars.iv.next, 10
  br i1 %exitcond.not, label %.critedge, label %.split, !llvm.loop !42

.critedge:                                        ; preds = %34, %41, %17, %21
  %.us-phi = phi ptr [ %9, %17 ], [ null, %21 ], [ %22, %34 ], [ %.1, %41 ]
  ret ptr %.us-phi
}